target datalayout = "e-m:e-p270:32:32-p271:32:32-p272:64:64-i64:64-i128:128-f80:128-n8:16:32:64-S128"
target triple = "x86_64-pc-linux-gnu"

%struct.Rwr_Man_t_ = type { i32, ptr, ptr, ptr, ptr, ptr, ptr, ptr, ptr, ptr, ptr, ptr, i32, i32, i32, i32, i32, ptr, ptr, ptr, ptr, ptr, i32, i32, i32, i32, i32, [222 x i32], i32, i32, i32, i64, i64, i64, i64, i64, i64, i64 }
%struct.Rwr_Node_t_ = type <{ i32, i32, i16, i16, i16, i32, [6 x i8], ptr, ptr, ptr }>
%struct.Vec_Ptr_t_ = type { i32, i32, ptr }

; Function Attrs: inlinehint nounwind uwtable
define internal ptr @Vec_PtrEntry(ptr noundef %0, i32 noundef %1) #2 {
  %3 = alloca ptr, align 8
  %4 = alloca i32, align 4
  store ptr %0, ptr %3, align 8, !tbaa !39
  store i32 %1, ptr %4, align 4, !tbaa !8
  %5 = load ptr, ptr %3, align 8, !tbaa !39
  %6 = getelementptr inbounds nuw %struct.Vec_Ptr_t_, ptr %5, i32 0, i32 2
  %7 = load ptr, ptr %6, align 8, !tbaa !34
  %8 = load i32, ptr %4, align 4, !tbaa !8
  %9 = sext i32 %8 to i64
  %10 = getelementptr inbounds ptr, ptr %7, i64 %9
  %11 = load ptr, ptr %10, align 8, !tbaa !35
  ret ptr %11
}

; Function Attrs: inlinehint nounwind uwtable
define internal i32 @Vec_PtrSize(ptr noundef %0) #2 {
  %2 = alloca ptr, align 8
  store ptr %0, ptr %2, align 8, !tbaa !39
  %3 = load ptr, ptr %2, align 8, !tbaa !39
  %4 = getelementptr inbounds nuw %struct.Vec_Ptr_t_, ptr %3, i32 0, i32 1
  %5 = load i32, ptr %4, align 4, !tbaa !24
  ret i32 %5
}

; Function Attrs: nounwind uwtable
define void @Rwr_ManIncTravId(ptr noundef %0) #0 {
  %2 = alloca ptr, align 8
  %3 = alloca ptr, align 8
  %4 = alloca i32, align 4
  %5 = alloca i32, align 4
  store ptr %0, ptr %2, align 8, !tbaa !3
  call void @llvm.lifetime.start.p0(i64 8, ptr %3) #6
  call void @llvm.lifetime.start.p0(i64 4, ptr %4) #6
  %6 = load ptr, ptr %2, align 8, !tbaa !3
  %7 = getelementptr inbounds nuw %struct.Rwr_Man_t_, ptr %6, i32 0, i32 12
  %8 = load i32, ptr %7, align 8, !tbaa !50
  %9 = add nsw i32 %8, 1
  store i32 %9, ptr %7, align 8, !tbaa !50
  %10 = icmp ult i32 %8, -1879048193
  br i1 %10, label %11, label %12

11:                                               ; preds = %1
  store i32 1, ptr %5, align 4
  br label %37

12:                                               ; preds = %1
  store i32 0, ptr %4, align 4, !tbaa !8
  br label %13

13:                                               ; preds = %31, %12
  %14 = load i32, ptr %4, align 4, !tbaa !8
  %15 = load ptr, ptr %2, align 8, !tbaa !3
  %16 = getelementptr inbounds nuw %struct.Rwr_Man_t_, ptr %15, i32 0, i32 8
  %17 = load ptr, ptr %16, align 8, !tbaa !10
  %18 = call i32 @Vec_PtrSize(ptr noundef %17)
  %19 = icmp slt i32 %14, %18
  br i1 %19, label %20, label %26

20:                                               ; preds = %13
  %21 = load ptr, ptr %2, align 8, !tbaa !3
  %22 = getelementptr inbounds nuw %struct.Rwr_Man_t_, ptr %21, i32 0, i32 8
  %23 = load ptr, ptr %22, align 8, !tbaa !10
  %24 = load i32, ptr %4, align 4, !tbaa !8
  %25 = call ptr @Vec_PtrEntry(ptr noundef %23, i32 noundef %24)
  store ptr %25, ptr %3, align 8, !tbaa !21
  br label %26

26:                                               ; preds = %20, %13
  %27 = phi i1 [ false, %13 ], [ true, %20 ]
  br i1 %27, label %28, label %34

28:                                               ; preds = %26
  %29 = load ptr, ptr %3, align 8, !tbaa !21
  %30 = getelementptr inbounds nuw %struct.Rwr_Node_t_, ptr %29, i32 0, i32 1
  store i32 0, ptr %30, align 4, !tbaa !47
  br label %31

31:                                               ; preds = %28
  %32 = load i32, ptr %4, align 4, !tbaa !8
  %33 = add nsw i32 %32, 1
  store i32 %33, ptr %4, align 4, !tbaa !8
  br label %13, !llvm.loop !51

34:                                               ; preds = %26
  %35 = load ptr, ptr %2, align 8, !tbaa !3
  %36 = getelementptr inbounds nuw %struct.Rwr_Man_t_, ptr %35, i32 0, i32 12
  store i32 1, ptr %36, align 8, !tbaa !50
  store i32 0, ptr %5, align 4
  br label %37

37:                                               ; preds = %34, %11
  call void @llvm.lifetime.end.p0(i64 4, ptr %4) #6
  call void @llvm.lifetime.end.p0(i64 8, ptr %3) #6
  %38 = load i32, ptr %5, align 4
  switch i32 %38, label %40 [
    i32 0, label %39
    i32 1, label %39
  ]

39:                                               ; preds = %37, %37
  ret void

40:                                               ; preds = %37
  unreachable
}